; Function Attrs: mustprogress uwtable
define void @_ZN8proxygen21HTTPDownstreamSession8startNowEv(ptr noundef nonnull align 8 dereferenceable(2504) %this) unnamed_addr #6 align 2 {
entry:
  %call_.i.i = getelementptr inbounds i8, ptr %this, i64 992
  %0 = load ptr, ptr %call_.i.i, align 8
  %txnEgressQueue_ = getelementptr inbounds i8, ptr %this, i64 1048
  %writeBuf_ = getelementptr inbounds i8, ptr %this, i64 1776
  %vtable = load ptr, ptr %0, align 8
  %vfn = getelementptr inbounds i8, ptr %vtable, i64 408
  %1 = load ptr, ptr %vfn, align 8
  %call2 = tail call noundef i64 %1(ptr noundef nonnull align 8 dereferenceable(8) %0, ptr noundef nonnull align 8 dereferenceable(8) %txnEgressQueue_, ptr noundef nonnull align 8 dereferenceable(72) %writeBuf_, i8 noundef zeroext 0)
  tail call void @_ZN8proxygen11HTTPSession8startNowEv(ptr noundef nonnull align 8 dereferenceable(2504) %this)
  ret void
}